target datalayout = "e-m:e-p270:32:32-p271:32:32-p272:64:64-i64:64-i128:128-f80:128-n8:16:32:64-S128"
target triple = "x86_64-unknown-linux-gnu"

%"class.v8::Local.19" = type { %"class.v8::LocalBase.20" }
%"class.v8::LocalBase.20" = type { %"class.v8::IndirectHandleBase" }
%"class.v8::IndirectHandleBase" = type { ptr }
%"class.v8::Local" = type { %"class.v8::LocalBase" }
%"class.v8::LocalBase" = type { %"class.v8::IndirectHandleBase" }
%"class.v8::MaybeLocal" = type { %"class.v8::Local" }
%"class.v8::Local.345" = type { %"class.v8::LocalBase.346" }
%"class.v8::LocalBase.346" = type { %"class.v8::IndirectHandleBase" }
%"class.v8::Maybe" = type { i8, i8 }

; Function Attrs: mustprogress nounwind uwtable
define internal noundef zeroext i1 @_ZN4node6crypto12_GLOBAL__N_13SetIN2v85ValueEEEbNS3_5LocalINS3_7ContextEEENS5_INS3_6ObjectEEENS5_IS4_EENS3_10MaybeLocalIT_EE(ptr %context.coerce, ptr %target.coerce, ptr %name.coerce, ptr %maybe_value.coerce) #4 {
entry:
  %this.addr.i.i77 = alloca ptr, align 8
  %this.addr.i78 = alloca ptr, align 8
  %this.addr.i74 = alloca ptr, align 8
  %out.addr.i = alloca ptr, align 8
  %slot.addr.i73 = alloca ptr, align 8
  %this.addr.i.i69 = alloca ptr, align 8
  %this.addr.i70 = alloca ptr, align 8
  %value.addr.i67 = alloca i64, align 8
  %shift_bits.i = alloca i32, align 4
  %heap_object_ptr.addr.i.i = alloca i64, align 8
  %offset.addr.i.i = alloca i32, align 4
  %addr.i.i = alloca i64, align 8
  %heap_object_ptr.addr.i65 = alloca i64, align 8
  %offset.addr.i66 = alloca i32, align 4
  %value.addr.i64 = alloca i64, align 8
  %heap_object_ptr.addr.i58 = alloca i64, align 8
  %offset.addr.i59 = alloca i32, align 4
  %addr.i60 = alloca i64, align 8
  %heap_object_ptr.addr.i55 = alloca i64, align 8
  %offset.addr.i56 = alloca i32, align 4
  %addr.i = alloca i64, align 8
  %heap_object_ptr.addr.i = alloca i64, align 8
  %offset.addr.i = alloca i32, align 4
  %obj.addr.i51 = alloca i64, align 8
  %obj.addr.i = alloca i64, align 8
  %map.i = alloca i64, align 8
  %value.addr.i49 = alloca i64, align 8
  %value.addr.i = alloca ptr, align 8
  %retval.i = alloca i1, align 1
  %this.addr.i47 = alloca ptr, align 8
  %obj.i = alloca i64, align 8
  %slot.addr.i = alloca ptr, align 8
  %this.addr.i.i = alloca ptr, align 8
  %this.addr.i45 = alloca ptr, align 8
  %this.addr.i43 = alloca ptr, align 8
  %this.addr.i40 = alloca ptr, align 8
  %this.addr.i37 = alloca ptr, align 8
  %this.addr.i35 = alloca ptr, align 8
  %this.addr.i33 = alloca ptr, align 8
  %this.addr.i31 = alloca ptr, align 8
  %this.addr.i = alloca ptr, align 8
  %retval = alloca i1, align 1
  %context = alloca %"class.v8::Local.345", align 8
  %target = alloca %"class.v8::Local.19", align 8
  %name = alloca %"class.v8::Local", align 8
  %maybe_value = alloca %"class.v8::MaybeLocal", align 8
  %value = alloca %"class.v8::Local", align 8
  %ref.tmp = alloca %"class.v8::Maybe", align 1
  %agg.tmp = alloca %"class.v8::Local.345", align 8
  %agg.tmp18 = alloca %"class.v8::Local", align 8
  %agg.tmp19 = alloca %"class.v8::Local", align 8
  %coerce.dive = getelementptr inbounds %"class.v8::Local.345", ptr %context, i32 0, i32 0
  %coerce.dive1 = getelementptr inbounds %"class.v8::LocalBase.346", ptr %coerce.dive, i32 0, i32 0
  %coerce.dive2 = getelementptr inbounds %"class.v8::IndirectHandleBase", ptr %coerce.dive1, i32 0, i32 0
  store ptr %context.coerce, ptr %coerce.dive2, align 8
  %coerce.dive3 = getelementptr inbounds %"class.v8::Local.19", ptr %target, i32 0, i32 0
  %coerce.dive4 = getelementptr inbounds %"class.v8::LocalBase.20", ptr %coerce.dive3, i32 0, i32 0
  %coerce.dive5 = getelementptr inbounds %"class.v8::IndirectHandleBase", ptr %coerce.dive4, i32 0, i32 0
  store ptr %target.coerce, ptr %coerce.dive5, align 8
  %coerce.dive6 = getelementptr inbounds %"class.v8::Local", ptr %name, i32 0, i32 0
  %coerce.dive7 = getelementptr inbounds %"class.v8::LocalBase", ptr %coerce.dive6, i32 0, i32 0
  %coerce.dive8 = getelementptr inbounds %"class.v8::IndirectHandleBase", ptr %coerce.dive7, i32 0, i32 0
  store ptr %name.coerce, ptr %coerce.dive8, align 8
  %coerce.dive9 = getelementptr inbounds %"class.v8::MaybeLocal", ptr %maybe_value, i32 0, i32 0
  %coerce.dive10 = getelementptr inbounds %"class.v8::Local", ptr %coerce.dive9, i32 0, i32 0
  %coerce.dive11 = getelementptr inbounds %"class.v8::LocalBase", ptr %coerce.dive10, i32 0, i32 0
  %coerce.dive12 = getelementptr inbounds %"class.v8::IndirectHandleBase", ptr %coerce.dive11, i32 0, i32 0
  store ptr %maybe_value.coerce, ptr %coerce.dive12, align 8
  store ptr %value, ptr %this.addr.i, align 8
  %this1.i = load ptr, ptr %this.addr.i, align 8
  store ptr %this1.i, ptr %this.addr.i31, align 8
  %this1.i32 = load ptr, ptr %this.addr.i31, align 8
  store ptr %this1.i32, ptr %this.addr.i33, align 8
  %this1.i34 = load ptr, ptr %this.addr.i33, align 8
  store ptr null, ptr %this1.i34, align 8
  store ptr %maybe_value, ptr %this.addr.i74, align 8
  store ptr %value, ptr %out.addr.i, align 8
  %this1.i75 = load ptr, ptr %this.addr.i74, align 8
  %0 = load ptr, ptr %out.addr.i, align 8
  call void @llvm.memcpy.p0.p0.i64(ptr align 8 %0, ptr align 8 %this1.i75, i64 8, i1 false)
  store ptr %this1.i75, ptr %this.addr.i78, align 8
  %this1.i79 = load ptr, ptr %this.addr.i78, align 8
  store ptr %this1.i79, ptr %this.addr.i.i77, align 8
  %this1.i.i80 = load ptr, ptr %this.addr.i.i77, align 8
  %1 = load ptr, ptr %this1.i.i80, align 8
  %cmp.i.i = icmp eq ptr %1, null
  %lnot.i76 = xor i1 %cmp.i.i, true
  br i1 %lnot.i76, label %if.end, label %if.then

if.then:                                          ; preds = %entry
  store i1 false, ptr %retval, align 1
  br label %return

if.end:                                           ; preds = %entry
  store ptr %value, ptr %this.addr.i35, align 8
  %this1.i36 = load ptr, ptr %this.addr.i35, align 8
  store ptr %this1.i36, ptr %this.addr.i45, align 8
  %this1.i46 = load ptr, ptr %this.addr.i45, align 8
  store ptr %this1.i46, ptr %this.addr.i.i, align 8
  %this1.i.i = load ptr, ptr %this.addr.i.i, align 8
  %2 = load ptr, ptr %this1.i.i, align 8
  store ptr %2, ptr %slot.addr.i, align 8
  %3 = load ptr, ptr %slot.addr.i, align 8
  store ptr %3, ptr %this.addr.i37, align 8
  %this1.i38 = load ptr, ptr %this.addr.i37, align 8
  store ptr %this1.i38, ptr %this.addr.i47, align 8
  %this1.i48 = load ptr, ptr %this.addr.i47, align 8
  store ptr %this1.i48, ptr %value.addr.i, align 8
  %4 = load ptr, ptr %value.addr.i, align 8
  %5 = load i64, ptr %4, align 8
  store i64 %5, ptr %obj.i, align 8
  %6 = load i64, ptr %obj.i, align 8
  store i64 %6, ptr %value.addr.i49, align 8
  %7 = load i64, ptr %value.addr.i49, align 8
  %and.i = and i64 %7, 3
  %cmp.i50 = icmp eq i64 %and.i, 1
  br i1 %cmp.i50, label %if.end.i, label %if.then.i

if.then.i:                                        ; preds = %if.end
  store i1 false, ptr %retval.i, align 1
  br label %_ZNK2v85Value16QuickIsUndefinedEv.exit

if.end.i:                                         ; preds = %if.end
  %8 = load i64, ptr %obj.i, align 8
  store i64 %8, ptr %obj.addr.i, align 8
  %9 = load i64, ptr %obj.addr.i, align 8
  store i64 %9, ptr %heap_object_ptr.addr.i, align 8
  store i32 0, ptr %offset.addr.i, align 4
  %10 = load i64, ptr %heap_object_ptr.addr.i, align 8
  %11 = load i32, ptr %offset.addr.i, align 4
  store i64 %10, ptr %heap_object_ptr.addr.i58, align 8
  store i32 %11, ptr %offset.addr.i59, align 4
  %12 = load i64, ptr %heap_object_ptr.addr.i58, align 8
  %13 = load i32, ptr %offset.addr.i59, align 4
  %conv.i61 = sext i32 %13 to i64
  %add.i62 = add i64 %12, %conv.i61
  %sub.i63 = sub i64 %add.i62, 1
  store i64 %sub.i63, ptr %addr.i60, align 8
  %14 = load i64, ptr %addr.i60, align 8
  %15 = inttoptr i64 %14 to ptr
  %16 = load i64, ptr %15, align 8
  store i64 %16, ptr %map.i, align 8
  %17 = load i64, ptr %map.i, align 8
  store i64 %17, ptr %heap_object_ptr.addr.i55, align 8
  store i32 12, ptr %offset.addr.i56, align 4
  %18 = load i64, ptr %heap_object_ptr.addr.i55, align 8
  %19 = load i32, ptr %offset.addr.i56, align 4
  %conv.i57 = sext i32 %19 to i64
  %add.i = add i64 %18, %conv.i57
  %sub.i = sub i64 %add.i, 1
  store i64 %sub.i, ptr %addr.i, align 8
  %20 = load i64, ptr %addr.i, align 8
  %21 = inttoptr i64 %20 to ptr
  %22 = load i16, ptr %21, align 2
  %conv.i = zext i16 %22 to i32
  %cmp.i = icmp ne i32 %conv.i, 131
  br i1 %cmp.i, label %if.then4.i, label %if.end5.i

if.then4.i:                                       ; preds = %if.end.i
  store i1 false, ptr %retval.i, align 1
  br label %_ZNK2v85Value16QuickIsUndefinedEv.exit

if.end5.i:                                        ; preds = %if.end.i
  %23 = load i64, ptr %obj.i, align 8
  store i64 %23, ptr %obj.addr.i51, align 8
  %24 = load i64, ptr %obj.addr.i51, align 8
  store i64 %24, ptr %heap_object_ptr.addr.i65, align 8
  store i32 40, ptr %offset.addr.i66, align 4
  %25 = load i64, ptr %heap_object_ptr.addr.i65, align 8
  %26 = load i32, ptr %offset.addr.i66, align 4
  store i64 %25, ptr %heap_object_ptr.addr.i.i, align 8
  store i32 %26, ptr %offset.addr.i.i, align 4
  %27 = load i64, ptr %heap_object_ptr.addr.i.i, align 8
  %28 = load i32, ptr %offset.addr.i.i, align 4
  %conv.i.i = sext i32 %28 to i64
  %add.i.i = add i64 %27, %conv.i.i
  %sub.i.i = sub i64 %add.i.i, 1
  store i64 %sub.i.i, ptr %addr.i.i, align 8
  %29 = load i64, ptr %addr.i.i, align 8
  %30 = inttoptr i64 %29 to ptr
  %31 = load i64, ptr %30, align 8
  store i64 %31, ptr %value.addr.i64, align 8
  %32 = load i64, ptr %value.addr.i64, align 8
  store i64 %32, ptr %value.addr.i67, align 8
  store i32 32, ptr %shift_bits.i, align 4
  %33 = load i64, ptr %value.addr.i67, align 8
  %34 = load i32, ptr %shift_bits.i, align 4
  %sh_prom.i = zext i32 %34 to i64
  %shr.i = ashr i64 %33, %sh_prom.i
  %conv.i68 = trunc i64 %shr.i to i32
  %cmp7.i = icmp eq i32 %conv.i68, 5
  store i1 %cmp7.i, ptr %retval.i, align 1
  br label %_ZNK2v85Value16QuickIsUndefinedEv.exit

_ZNK2v85Value16QuickIsUndefinedEv.exit:           ; preds = %if.end5.i, %if.then4.i, %if.then.i
  %35 = load i1, ptr %retval.i, align 1
  br i1 %35, label %if.then15, label %if.end16

if.then15:                                        ; preds = %_ZNK2v85Value16QuickIsUndefinedEv.exit
  store i1 true, ptr %retval, align 1
  br label %return

if.end16:                                         ; preds = %_ZNK2v85Value16QuickIsUndefinedEv.exit
  store ptr %target, ptr %this.addr.i40, align 8
  %this1.i41 = load ptr, ptr %this.addr.i40, align 8
  store ptr %this1.i41, ptr %this.addr.i70, align 8
  %this1.i71 = load ptr, ptr %this.addr.i70, align 8
  store ptr %this1.i71, ptr %this.addr.i.i69, align 8
  %this1.i.i72 = load ptr, ptr %this.addr.i.i69, align 8
  %36 = load ptr, ptr %this1.i.i72, align 8
  store ptr %36, ptr %slot.addr.i73, align 8
  %37 = load ptr, ptr %slot.addr.i73, align 8
  call void @llvm.memcpy.p0.p0.i64(ptr align 8 %agg.tmp, ptr align 8 %context, i64 8, i1 false)
  call void @llvm.memcpy.p0.p0.i64(ptr align 8 %agg.tmp18, ptr align 8 %name, i64 8, i1 false)
  call void @llvm.memcpy.p0.p0.i64(ptr align 8 %agg.tmp19, ptr align 8 %value, i64 8, i1 false)
  %coerce.dive20 = getelementptr inbounds %"class.v8::Local.345", ptr %agg.tmp, i32 0, i32 0
  %coerce.dive21 = getelementptr inbounds %"class.v8::LocalBase.346", ptr %coerce.dive20, i32 0, i32 0
  %coerce.dive22 = getelementptr inbounds %"class.v8::IndirectHandleBase", ptr %coerce.dive21, i32 0, i32 0
  %38 = load ptr, ptr %coerce.dive22, align 8
  %coerce.dive23 = getelementptr inbounds %"class.v8::Local", ptr %agg.tmp18, i32 0, i32 0
  %coerce.dive24 = getelementptr inbounds %"class.v8::LocalBase", ptr %coerce.dive23, i32 0, i32 0
  %coerce.dive25 = getelementptr inbounds %"class.v8::IndirectHandleBase", ptr %coerce.dive24, i32 0, i32 0
  %39 = load ptr, ptr %coerce.dive25, align 8
  %coerce.dive26 = getelementptr inbounds %"class.v8::Local", ptr %agg.tmp19, i32 0, i32 0
  %coerce.dive27 = getelementptr inbounds %"class.v8::LocalBase", ptr %coerce.dive26, i32 0, i32 0
  %coerce.dive28 = getelementptr inbounds %"class.v8::IndirectHandleBase", ptr %coerce.dive27, i32 0, i32 0
  %40 = load ptr, ptr %coerce.dive28, align 8
  %call29 = call i16 @_ZN2v86Object3SetENS_5LocalINS_7ContextEEENS1_INS_5ValueEEES5_(ptr noundef nonnull align 1 dereferenceable(1) %37, ptr %38, ptr %39, ptr %40)
  store i16 %call29, ptr %ref.tmp, align 1
  store ptr %ref.tmp, ptr %this.addr.i43, align 8
  %this1.i44 = load ptr, ptr %this.addr.i43, align 8
  %41 = load i8, ptr %this1.i44, align 1
  %tobool.i = trunc i8 %41 to i1
  %lnot.i = xor i1 %tobool.i, true
  %lnot = xor i1 %lnot.i, true
  store i1 %lnot, ptr %retval, align 1
  br label %return

return:                                           ; preds = %if.end16, %if.then15, %if.then
  %42 = load i1, ptr %retval, align 1
  ret i1 %42
}